(dp0
Vinput_node
p1
L22L
sVhidden_node
p2
L4L
sVoutput_node
p3
L1L
sVinput_cells
p4
(lp5
L1L
aL1L
aL0L
aF0.231
aF0.321
aF0.43
aF0.42
aF0.21
aF0.56
aF0.21
aF0.661
aL1L
aL0L
aF0.231
aF0.321
aF0.43
aF0.42
aF0.21
aF0.56
aF0.21
aF0.668
aF1.0
asVhidden_cells
p6
(lp7
F0.31017470914169615
aF0.2429750628489199
aF0.4006738965854668
aF0.7864489174613564
asVoutput_cells
p8
(lp9
F0.5830000000000007
asVinput_weights
p10
(lp11
(lp12
F-0.1107270589390118
aF-0.15751117022572778
aF-0.8241312122363327
aF0.6132626924573679
aa(lp13
F-0.26455575639367124
aF-0.16799317672392086
aF0.11281973139594514
aF0.2062504686441749
aa(lp14
F0.045823932774396316
aF0.1771299307985925
aF0.6396792335184053
aF0.015301038592036572
aa(lp15
F0.08603016519153067
aF-0.22744638697682196
aF-0.6222275288032157
aF0.38650935223606553
aa(lp16
F-0.13991019231759447
aF-0.27820952395636944
aF-0.9784607704500256
aF0.3456241402487121
aa(lp17
F0.26193722332148306
aF0.12078871567657133
aF0.925859238421284
aF-0.11690600387752574
aa(lp18
F0.31260738334930904
aF-0.04186549970150284
aF0.3870277387485945
aF-0.007468874074659011
aa(lp19
F-0.20729961364254837
aF-0.3258985365389148
aF0.022470024446109564
aF-0.39403038059020523
aa(lp20
F0.17530129137820302
aF-0.17788309787793743
aF0.926983881152033
aF-0.5830944489676734
aa(lp21
F-0.4245917119691405
aF0.07366050705835711
aF-1.0547227535061834
aF1.1672832694786037
aa(lp22
F-0.46901190160905865
aF-0.27536322564459403
aF-0.9151578939817488
aF0.4576711463508789
aa(lp23
F-0.07836814684290068
aF0.082501765909932
aF-0.004882897382689929
aF0.10889660201256116
aa(lp24
F0.31556967081498744
aF-0.11287215331997517
aF0.6405557533835334
aF0.22799429411945107
aa(lp25
F-0.19403614944421937
aF-0.02516478704951936
aF-0.5251950993131937
aF0.21923576437159828
aa(lp26
F0.0533487058518763
aF-0.21698017318982332
aF-0.9902398307681354
aF0.4791520533732389
aa(lp27
F0.19162047882274155
aF-0.0918006825667128
aF0.6274882955500551
aF-0.3351392280562933
aa(lp28
F-0.004196605042597956
aF-0.02416610690024322
aF0.3896930020174521
aF0.07746824096296985
aa(lp29
F-0.106947682222184
aF-0.0183183267894288
aF0.14212223701390767
aF-0.30385159447496124
aa(lp30
F0.05427107267018225
aF-0.21214190303511893
aF0.9148255151499061
aF-0.526242437778615
aa(lp31
F-0.244358992930032
aF0.023964764391778384
aF-0.9158997083102073
aF1.110954837025762
aa(lp32
F-0.21265983241109948
aF-0.1168457790397261
aF-0.953503105800715
aF0.555083111393674
aa(lp33
F-0.08749371308031788
aF-0.13059099600205817
aF0.8060942782864551
aF-0.2484209000658035
aasVoutput_weights
p34
(lp35
(lp36
F-0.70963372187963
aa(lp37
F-0.2794497956102498
aa(lp38
F-3.410612252483256
aa(lp39
F2.52992150698298
aasVinput_correction
p40
(lp41
(lp42
F2.8687494589950063e-17
aF9.71155032083939e-18
aF1.547388876928435e-16
aF-8.02772012180926e-17
aa(lp43
F2.8687494589950063e-17
aF9.71155032083939e-18
aF1.547388876928435e-16
aF-8.02772012180926e-17
aa(lp44
F0.0
aF0.0
aF0.0
aF-0.0
aa(lp45
F6.626811250278465e-18
aF2.243368124113899e-18
aF3.5744683057046853e-17
aF-1.8544033481379392e-17
aa(lp46
F9.20868576337397e-18
aF3.1174076529894444e-18
aF4.9671182949402765e-17
aF-2.5768981591007725e-17
aa(lp47
F1.2335622673678527e-17
aF4.175966637960938e-18
aF6.653772170792271e-17
aF-3.451919652377982e-17
aa(lp48
F1.2048747727779026e-17
aF4.078851134752544e-18
aF6.499033283099428e-17
aF-3.3716424511598895e-17
aa(lp49
F6.024373863889513e-18
aF2.039425567376272e-18
aF3.249516641549714e-17
aF-1.6858212255799447e-17
aa(lp50
F1.6064996970372038e-17
aF5.4384681796700594e-18
aF8.665377710799237e-17
aF-4.4955232682131863e-17
aa(lp51
F6.024373863889513e-18
aF2.039425567376272e-18
aF3.249516641549714e-17
aF-1.6858212255799447e-17
aa(lp52
F1.8962433923956994e-17
aF6.419334762074837e-18
aF1.0228240476496956e-16
aF-5.3063230005159216e-17
aa(lp53
F2.8687494589950063e-17
aF9.71155032083939e-18
aF1.547388876928435e-16
aF-8.02772012180926e-17
aa(lp54
F0.0
aF0.0
aF0.0
aF-0.0
aa(lp55
F6.626811250278465e-18
aF2.243368124113899e-18
aF3.5744683057046853e-17
aF-1.8544033481379392e-17
aa(lp56
F9.20868576337397e-18
aF3.1174076529894444e-18
aF4.9671182949402765e-17
aF-2.5768981591007725e-17
aa(lp57
F1.2335622673678527e-17
aF4.175966637960938e-18
aF6.653772170792271e-17
aF-3.451919652377982e-17
aa(lp58
F1.2048747727779026e-17
aF4.078851134752544e-18
aF6.499033283099428e-17
aF-3.3716424511598895e-17
aa(lp59
F6.024373863889513e-18
aF2.039425567376272e-18
aF3.249516641549714e-17
aF-1.6858212255799447e-17
aa(lp60
F1.6064996970372038e-17
aF5.4384681796700594e-18
aF8.665377710799237e-17
aF-4.4955232682131863e-17
aa(lp61
F6.024373863889513e-18
aF2.039425567376272e-18
aF3.249516641549714e-17
aF-1.6858212255799447e-17
aa(lp62
F1.9163246386086642e-17
aF6.4873156143207135e-18
aF1.0336557697881947e-16
aF-5.362517041368586e-17
aa(lp63
F2.8687494589950063e-17
aF9.71155032083939e-18
aF1.547388876928435e-16
aF-8.02772012180926e-17
aasVoutput_correction
p64
(lp65
(lp66
F-5.860292096027431e-17
aa(lp67
F-4.5906542293066694e-17
aa(lp68
F-7.570140311380654e-17
aa(lp69
F-1.4858788415346535e-16
aas.