(dp0
Vinput_node
p1
L22L
sVhidden_node
p2
L4L
sVoutput_node
p3
L1L
sVinput_cells
p4
(lp5
L1L
aL1L
aL0L
aF0.231
aF0.321
aF0.43
aF0.42
aF0.21
aF0.56
aF0.21
aF0.661
aL1L
aL0L
aF0.231
aF0.321
aF0.43
aF0.42
aF0.21
aF0.56
aF0.21
aF0.668
aF1.0
asVhidden_cells
p6
(lp7
F0.2914213671867974
aF0.23360951757186588
aF0.5086096170494929
aF0.2300568067848781
asVoutput_cells
p8
(lp9
F0.5830000000000043
asVinput_weights
p10
(lp11
(lp12
F-0.36910323172103665
aF-0.5759462728816299
aF0.5560279031928429
aF-0.6359434852379143
aa(lp13
F0.024165055852345168
aF-0.12311056449106478
aF-0.24890923464202136
aF-0.25058721445784177
aa(lp14
F0.10056651169861276
aF0.1352542449549532
aF-0.6278339801308661
aF-0.15077147431585286
aa(lp15
F-0.2496846987638973
aF-0.25479453919571876
aF0.25832955527396245
aF-0.2795149199280976
aa(lp16
F-0.28668548330661553
aF-0.5823183412525567
aF0.7942080806014046
aF-0.5522146418078058
aa(lp17
F-0.06975937583116404
aF0.2936380386069892
aF-0.48280231685048774
aF0.2983529886540999
aa(lp18
F0.17341642900545973
aF-0.07057987643772831
aF-0.4359322241698244
aF0.10597875588369526
aa(lp19
F-0.1412308660213349
aF0.32906373943098194
aF0.10651932960796733
aF0.14800391621920939
aa(lp20
F-0.02219980582514103
aF0.6019023905029552
aF-0.6467827208428306
aF0.5934561906005453
aa(lp21
F-0.24677825516238067
aF-0.47914181889742885
aF0.8283114195719904
aF-1.0495403687667895
aa(lp22
F-0.2267169911948301
aF-0.3555132619614953
aF0.7288730710517848
aF-0.42465218246530817
aa(lp23
F-0.0698767415598317
aF-0.17536902477986796
aF-0.05131607303504074
aF-0.20868386814120177
aa(lp24
F0.18089774003824438
aF0.1844684344659912
aF-0.638260370885348
aF-0.16323634270338927
aa(lp25
F-0.15944292992483325
aF-0.5107219447022319
aF0.41905070584834875
aF-0.4904848402565001
aa(lp26
F-0.33026172538514736
aF-0.4019543159270487
aF0.6586757078824556
aF-0.41734237062577434
aa(lp27
F0.18402715830072966
aF0.21856051923150058
aF-0.842073962228384
aF0.1859326110191491
aa(lp28
F-0.049582525514897106
aF-0.09123373754736078
aF-0.42180012259509253
aF0.009368820610542953
aa(lp29
F-0.17005639711459508
aF0.2456698654327315
aF0.05151910865544908
aF0.4584952419416039
aa(lp30
F-0.10282438522830724
aF0.6236052602357245
aF-0.5816427665489595
aF0.8184032664835239
aa(lp31
F0.020261428393354958
aF-0.82540099258515
aF0.7447027519300532
aF-0.7303121517668666
aa(lp32
F-0.1460559795060799
aF-0.6727189717377131
aF0.7674380060405325
aF-0.35879373092572037
aa(lp33
F0.14810497822880525
aF0.17823340426294268
aF-0.5843033369093736
aF0.09576526581032821
aasVoutput_weights
p34
(lp35
(lp36
F-0.692260566965258
aa(lp37
F-2.085645191297057
aa(lp38
F3.1117817241851333
aa(lp39
F-2.428161402807538
aasVinput_correction
p40
(lp41
(lp42
F1.5047296674732897e-16
aF3.9306150284200793e-16
aF-8.186528776821964e-16
aF4.52741983652589e-16
aa(lp43
F1.5047296674732897e-16
aF3.9306150284200793e-16
aF-8.186528776821964e-16
aF4.52741983652589e-16
aa(lp44
F0.0
aF0.0
aF-0.0
aF0.0
aa(lp45
F3.4759255318632994e-17
aF9.079720715650383e-17
aF-1.8910881474458737e-16
aF1.0458339822374805e-16
aa(lp46
F4.83018223258926e-17
aF1.2617274241228455e-16
aF-2.6278757373598507e-16
aF1.4533017675248106e-16
aa(lp47
F6.470337570135146e-17
aF1.690164462220634e-16
aF-3.5202073740334444e-16
aF1.9467905297061325e-16
aa(lp48
F6.319864603387816e-17
aF1.6508583119364333e-16
aF-3.4383420862652245e-16
aF1.9015163313408735e-16
aa(lp49
F3.159932301693908e-17
aF8.254291559682167e-17
aF-1.7191710431326123e-16
aF9.507581656704368e-17
aa(lp50
F8.426486137850423e-17
aF2.2011444159152447e-16
aF-4.5844561150203e-16
aF2.5353551084544984e-16
aa(lp51
F3.159932301693908e-17
aF8.254291559682167e-17
aF-1.7191710431326123e-16
aF9.507581656704368e-17
aa(lp52
F9.946263101998446e-17
aF2.5981365337856727e-16
aF-5.411295521479318e-16
aF2.992624511943613e-16
aa(lp53
F1.5047296674732897e-16
aF3.9306150284200793e-16
aF-8.186528776821964e-16
aF4.52741983652589e-16
aa(lp54
F0.0
aF0.0
aF-0.0
aF0.0
aa(lp55
F3.4759255318632994e-17
aF9.079720715650383e-17
aF-1.8910881474458737e-16
aF1.0458339822374805e-16
aa(lp56
F4.83018223258926e-17
aF1.2617274241228455e-16
aF-2.6278757373598507e-16
aF1.4533017675248106e-16
aa(lp57
F6.470337570135146e-17
aF1.690164462220634e-16
aF-3.5202073740334444e-16
aF1.9467905297061325e-16
aa(lp58
F6.319864603387816e-17
aF1.6508583119364333e-16
aF-3.4383420862652245e-16
aF1.9015163313408735e-16
aa(lp59
F3.159932301693908e-17
aF8.254291559682167e-17
aF-1.7191710431326123e-16
aF9.507581656704368e-17
aa(lp60
F8.426486137850423e-17
aF2.2011444159152447e-16
aF-4.5844561150203e-16
aF2.5353551084544984e-16
aa(lp61
F3.159932301693908e-17
aF8.254291559682167e-17
aF-1.7191710431326123e-16
aF9.507581656704368e-17
aa(lp62
F1.0051594178721575e-16
aF2.625650838984613e-16
aF-5.468601222917072e-16
aF3.024316450799294e-16
aa(lp63
F1.5047296674732897e-16
aF3.9306150284200793e-16
aF-8.186528776821964e-16
aF4.52741983652589e-16
aasVoutput_correction
p64
(lp65
(lp66
F-3.0676148953554775e-16
aa(lp67
F-2.4590648335710953e-16
aa(lp68
F-5.35382306466907e-16
aa(lp69
F-2.4216676151232523e-16
aas.