(dp0
Vinput_node
p1
L22L
sVhidden_node
p2
L4L
sVoutput_node
p3
L1L
sVinput_cells
p4
(lp5
L1L
aL1L
aL0L
aF0.231
aF0.321
aF0.43
aF0.42
aF0.21
aF0.56
aF0.21
aF0.661
aL1L
aL0L
aF0.231
aF0.321
aF0.43
aF0.42
aF0.21
aF0.56
aF0.21
aF0.668
aF1.0
asVhidden_cells
p6
(lp7
F0.41268973973062756
aF0.45450541617980134
aF0.3293793552443713
aF0.37008007313482716
asVoutput_cells
p8
(lp9
F0.5830000000000031
asVinput_weights
p10
(lp11
(lp12
F0.18082090508372667
aF0.3737784104305003
aF-0.7772244871433228
aF-0.19997242176285376
aa(lp13
F0.004412757536220467
aF-0.14748461880889213
aF-0.07218617053022473
aF-0.1919864670844136
aa(lp14
F-0.4466069737962605
aF-0.08106672927064337
aF0.24043168010356925
aF0.08546048782303294
aa(lp15
F0.43706314479263253
aF0.1954299944636887
aF-0.5549213242626152
aF-0.035142757646222905
aa(lp16
F0.37713542966854224
aF0.2687137727715382
aF-0.7149750568848462
aF-0.29595793096795237
aa(lp17
F-0.5771521475985626
aF-0.42965663410988975
aF0.564072138056315
aF0.07056289466569764
aa(lp18
F-0.37904901140904634
aF-0.08209048834243227
aF0.10744538770351761
aF0.09121969758216279
aa(lp19
F0.10926163466309127
aF-0.12010793739082848
aF0.416665615568234
aF-0.19219755973753894
aa(lp20
F-0.5063954867023437
aF-0.5448519545460299
aF0.9384420572761667
aF0.18481478370340368
aa(lp21
F0.6867787886331558
aF0.23126502858470926
aF-0.8897922213012287
aF-0.24559081194867424
aa(lp22
F0.5658707823933234
aF0.4274450499798451
aF-0.4754537770747229
aF-0.2683902999126029
aa(lp23
F0.044392775948768975
aF-0.052890463728893895
aF-0.11514126428265918
aF-0.14609078060107863
aa(lp24
F-0.39206119100370024
aF-0.2904145785833119
aF0.5001491313459502
aF-0.04285803014301363
aa(lp25
F0.39566663604671903
aF0.18071562442551486
aF-0.3679640095246918
aF0.032067520149400626
aa(lp26
F0.6434919448160324
aF0.33460000260913125
aF-0.6020535863299797
aF-0.1370504138465649
aa(lp27
F-0.4105197025858388
aF-0.18765477492844368
aF0.6013767012584336
aF0.3523396408005876
aa(lp28
F-0.26990526524742187
aF-0.1518100377660952
aF0.38501714987438923
aF0.1854294533099552
aa(lp29
F-0.07554984856924338
aF0.18678891025860395
aF0.2097789316203841
aF0.1409241428961897
aa(lp30
F-0.8305524332997729
aF-0.46678604648608085
aF0.632806851589095
aF0.027619292665055067
aa(lp31
F0.5261207365463786
aF0.5515059525841117
aF-0.9632457350460476
aF-0.19980222592815086
aa(lp32
F0.6450249317461113
aF0.3158931873068005
aF-0.9003744891608533
aF-0.2962586137969113
aa(lp33
F-0.7232206526000708
aF-0.3781830638830712
aF0.47494421711383794
aF0.2084852943618526
aasVoutput_weights
p34
(lp35
(lp36
F2.5049901363789044
aa(lp37
F1.6178359896566548
aa(lp38
F-3.3681111374756503
aa(lp39
F-0.8771391149084545
aasVinput_correction
p40
(lp41
(lp42
F-4.588493814876297e-16
aF-3.0313554864386167e-16
aF5.622540317346382e-16
aF1.5453341333735184e-16
aa(lp43
F-4.588493814876297e-16
aF-3.0313554864386167e-16
aF5.622540317346382e-16
aF1.5453341333735184e-16
aa(lp44
F-0.0
aF-0.0
aF0.0
aF0.0
aa(lp45
F-1.0599420712364247e-16
aF-7.002431173673205e-17
aF1.298806813307014e-16
aF3.5697218480928273e-17
aa(lp46
F-1.4729065145752914e-16
aF-9.73065111146796e-17
aF1.8048354418681886e-16
aF4.960522568128994e-17
aa(lp47
F-1.9730523403968078e-16
aF-1.3034828591686052e-16
aF2.417692336458944e-16
aF6.644936773506129e-17
aa(lp48
F-1.9271674022480448e-16
aF-1.273169304304219e-16
aF2.36146693328548e-16
aF6.490403360168777e-17
aa(lp49
F-9.635837011240224e-17
aF-6.365846521521094e-17
aF1.18073346664274e-16
aF3.2452016800843885e-17
aa(lp50
F-2.5695565363307265e-16
aF-1.6975590724056255e-16
aF3.148622577713974e-16
aF8.653871146891703e-17
aa(lp51
F-9.635837011240224e-17
aF-6.365846521521094e-17
aF1.18073346664274e-16
aF3.2452016800843885e-17
aa(lp52
F-3.0329944116332324e-16
aF-2.0037259765359256e-16
aF3.7164991497659583e-16
aF1.0214658621598957e-16
aa(lp53
F-4.588493814876297e-16
aF-3.0313554864386167e-16
aF5.622540317346382e-16
aF1.5453341333735184e-16
aa(lp54
F-0.0
aF-0.0
aF0.0
aF0.0
aa(lp55
F-1.0599420712364247e-16
aF-7.002431173673205e-17
aF1.298806813307014e-16
aF3.5697218480928273e-17
aa(lp56
F-1.4729065145752914e-16
aF-9.73065111146796e-17
aF1.8048354418681886e-16
aF4.960522568128994e-17
aa(lp57
F-1.9730523403968078e-16
aF-1.3034828591686052e-16
aF2.417692336458944e-16
aF6.644936773506129e-17
aa(lp58
F-1.9271674022480448e-16
aF-1.273169304304219e-16
aF2.36146693328548e-16
aF6.490403360168777e-17
aa(lp59
F-9.635837011240224e-17
aF-6.365846521521094e-17
aF1.18073346664274e-16
aF3.2452016800843885e-17
aa(lp60
F-2.5695565363307265e-16
aF-1.6975590724056255e-16
aF3.148622577713974e-16
aF8.653871146891703e-17
aa(lp61
F-9.635837011240224e-17
aF-6.365846521521094e-17
aF1.18073346664274e-16
aF3.2452016800843885e-17
aa(lp62
F-3.065113868337367e-16
aF-2.024945464940996e-16
aF3.755856931987383e-16
aF1.0322832010935103e-16
aa(lp63
F-4.588493814876297e-16
aF-3.0313554864386167e-16
aF5.622540317346382e-16
aF1.5453341333735184e-16
aasVoutput_correction
p64
(lp65
(lp66
F-3.118864754057279e-16
aa(lp67
F-3.434882883147471e-16
aa(lp68
F-2.48925418513268e-16
aa(lp69
F-2.7968461174550784e-16
aas.