(dp0
Vinput_node
p1
L22L
sVhidden_node
p2
L4L
sVoutput_node
p3
L1L
sVinput_cells
p4
(lp5
L1L
aL1L
aL0L
aF0.231
aF0.321
aF0.43
aF0.42
aF0.21
aF0.56
aF0.21
aF0.661
aL1L
aL0L
aF0.231
aF0.321
aF0.43
aF0.42
aF0.21
aF0.56
aF0.21
aF0.668
aF1.0
asVhidden_cells
p6
(lp7
F-0.005221814256488421
aF0.8907748721310523
aF0.6630592469120701
aF-0.8684115987641016
asVoutput_cells
p8
(lp9
F0.5830000000000002
asVinput_weights
p10
(lp11
(lp12
F0.04549751834163111
aF0.48901347026171177
aF0.2617290240253312
aF0.10899214863078949
aa(lp13
F-0.19017810298481735
aF-0.11067142939380686
aF0.005122975621464117
aF-0.09053099229153677
aa(lp14
F-0.012230618497363796
aF-0.18872014091194358
aF0.16639136166998994
aF-0.03162279624866334
aa(lp15
F0.053835933786006894
aF0.18006237009060788
aF0.024255721061363214
aF-0.06895016147683505
aa(lp16
F0.12547792899780433
aF0.17919791241426347
aF0.16371426661977892
aF0.16793986018918225
aa(lp17
F0.15213911204527733
aF0.12770053799135048
aF-0.09991422189640498
aF-0.23882368520138197
aa(lp18
F0.1621471529270669
aF-0.09949034383094835
aF0.11077167069635495
aF-0.23993433953213425
aa(lp19
F-0.11217210151017237
aF0.1724300670798032
aF-0.12542315578483948
aF-0.17668592693548016
aa(lp20
F0.15370483753572511
aF0.2684831922426567
aF-0.15234468668449166
aF-0.2193853845974134
aa(lp21
F-0.10172993256575062
aF-0.027253462281721274
aF0.5648763095041341
aF-0.14755328161587278
aa(lp22
F-0.005624871038938214
aF0.33010826506459023
aF-0.13923059888033373
aF-0.2555601365911674
aa(lp23
F0.07155202227320494
aF0.12105839394656309
aF0.1917533254971654
aF-0.1256240258065232
aa(lp24
F-0.021857191032809836
aF-0.15091470113163058
aF0.04203889748645169
aF-0.2694702611216279
aa(lp25
F-0.1549355979043044
aF0.19329837600249405
aF0.0941419315707696
aF-0.06777783586473389
aa(lp26
F-0.21017975161274835
aF0.2886811770407796
aF0.18331155845493066
aF-0.19476732506360953
aa(lp27
F-0.14552118550875862
aF0.14005695129035992
aF0.05085581674859941
aF-0.13634238883580185
aa(lp28
F0.10249304032423458
aF-0.023255215851891647
aF0.011535023591210175
aF-0.02077290212796233
aa(lp29
F-0.20349874591529288
aF-0.032504164344480335
aF-0.022089732264877256
aF-0.052544257601781774
aa(lp30
F0.18836316439582246
aF-0.039171588195265034
aF-0.023481413320411017
aF-0.2091265914385561
aa(lp31
F-0.2694671877324602
aF-0.02921930492336489
aF0.3179323121491052
aF-0.1410336516844819
aa(lp32
F0.04971043782800844
aF0.08994484617287303
aF0.059186947543471445
aF-0.048978413856044345
aa(lp33
F-0.07234892202654448
aF0.2020225144982339
aF0.16717438523274836
aF-0.3580542905033814
aasVoutput_weights
p34
(lp35
(lp36
F-0.5414298017136346
aa(lp37
F1.0307931285123038
aa(lp38
F1.0056181618696756
aa(lp39
F1.0603507213185295
aasVinput_correction
p40
(lp41
(lp42
F7.935741450359095e-17
aF-3.120262228713446e-17
aF-8.259458343316164e-17
aF-3.821174725352073e-17
aa(lp43
F7.935741450359095e-17
aF-3.120262228713446e-17
aF-8.259458343316164e-17
aF-3.821174725352073e-17
aa(lp44
F0.0
aF-0.0
aF-0.0
aF-0.0
aa(lp45
F1.833156275032951e-17
aF-7.207805748328061e-18
aF-1.907934877306034e-17
aF-8.82691361556329e-18
aa(lp46
F2.5473730055652696e-17
aF-1.0016041754170163e-17
aF-2.6512861282044887e-17
aF-1.2265970868380155e-17
aa(lp47
F3.412368823654411e-17
aF-1.3417127583467818e-17
aF-3.5515670876259506e-17
aF-1.6431051319013914e-17
aa(lp48
F3.33301140915082e-17
aF-1.3105101360596473e-17
aF-3.4689725041927886e-17
aF-1.6048933846478707e-17
aa(lp49
F1.66650570457541e-17
aF-6.552550680298236e-18
aF-1.7344862520963943e-17
aF-8.024466923239353e-18
aa(lp50
F4.4440152122010935e-17
aF-1.7473468480795298e-17
aF-4.625296672257052e-17
aF-2.1398578461971612e-17
aa(lp51
F1.66650570457541e-17
aF-6.552550680298236e-18
aF-1.7344862520963943e-17
aF-8.024466923239353e-18
aa(lp52
F5.2455250986873625e-17
aF-2.062493333179588e-17
aF-5.4595019649319846e-17
aF-2.5257964934577207e-17
aa(lp53
F7.935741450359095e-17
aF-3.120262228713446e-17
aF-8.259458343316164e-17
aF-3.821174725352073e-17
aa(lp54
F0.0
aF-0.0
aF-0.0
aF-0.0
aa(lp55
F1.833156275032951e-17
aF-7.207805748328061e-18
aF-1.907934877306034e-17
aF-8.82691361556329e-18
aa(lp56
F2.5473730055652696e-17
aF-1.0016041754170163e-17
aF-2.6512861282044887e-17
aF-1.2265970868380155e-17
aa(lp57
F3.412368823654411e-17
aF-1.3417127583467818e-17
aF-3.5515670876259506e-17
aF-1.6431051319013914e-17
aa(lp58
F3.33301140915082e-17
aF-1.3105101360596473e-17
aF-3.4689725041927886e-17
aF-1.6048933846478707e-17
aa(lp59
F1.66650570457541e-17
aF-6.552550680298236e-18
aF-1.7344862520963943e-17
aF-8.024466923239353e-18
aa(lp60
F4.4440152122010935e-17
aF-1.7473468480795298e-17
aF-4.625296672257052e-17
aF-2.1398578461971612e-17
aa(lp61
F1.66650570457541e-17
aF-6.552550680298236e-18
aF-1.7344862520963943e-17
aF-8.024466923239353e-18
aa(lp62
F5.301075288839876e-17
aF-2.084335168780582e-17
aF-5.5173181733351974e-17
aF-2.552544716535185e-17
aa(lp63
F7.935741450359095e-17
aF-3.120262228713446e-17
aF-8.259458343316164e-17
aF-3.821174725352073e-17
aasVoutput_correction
p64
(lp65
(lp66
F7.65382652959629e-19
aa(lp67
F-1.3056451289401603e-16
aa(lp68
F-9.718730321370236e-17
aa(lp69
F1.2728663653577712e-16
aas.